target datalayout = "e-m:e-p270:32:32-p271:32:32-p272:64:64-i64:64-i128:128-f80:128-n8:16:32:64-S128"
target triple = "x86_64-pc-linux-gnu"

%"class.cv::utils::trace::details::Region" = type <{ ptr, i32, [4 x i8] }>
%"class.cv::Range" = type { i32, i32 }
%"class.cv::ParallelLoopBody" = type { ptr }
%"struct.cv::hal::cpu_baseline::(anonymous namespace)::RGB5x52RGB" = type { i32, i32, i32 }
%"class.cv::impl::(anonymous namespace)::CvtColorLoop_Invoker.17" = type { %"class.cv::ParallelLoopBody", ptr, i64, ptr, i64, i32, ptr }

@_ZTVN2cv16ParallelLoopBodyE = external unnamed_addr constant { [5 x ptr] }, align 8

; Function Attrs: mustprogress nounwind uwtable
define linkonce_odr hidden void @_ZN2cv16ParallelLoopBodyC2Ev(ptr noundef nonnull align 8 dereferenceable(8) %0) unnamed_addr #2 comdat align 2 {
  %2 = alloca ptr, align 8
  store ptr %0, ptr %2, align 8
  %3 = load ptr, ptr %2, align 8
  store ptr getelementptr inbounds inrange(-16, 24) ({ [5 x ptr] }, ptr @_ZTVN2cv16ParallelLoopBodyE, i32 0, i32 0, i32 2), ptr %3, align 8
  ret void
}

; Function Attrs: mustprogress nounwind uwtable
define internal void @_ZN2cv4impl12_GLOBAL__N_120CvtColorLoop_InvokerINS_3hal12cpu_baseline12_GLOBAL__N_110RGB5x52RGBEED2Ev(ptr noundef nonnull align 8 dereferenceable(56) %0) unnamed_addr #2 align 2 {
  %2 = alloca ptr, align 8
  store ptr %0, ptr %2, align 8
  %3 = load ptr, ptr %2, align 8
  call void @_ZN2cv16ParallelLoopBodyD2Ev(ptr noundef nonnull align 8 dereferenceable(8) %3) #10
  ret void
}

; Function Attrs: mustprogress nounwind uwtable
define internal void @_ZN2cv4impl12_GLOBAL__N_120CvtColorLoop_InvokerINS_3hal12cpu_baseline12_GLOBAL__N_110RGB5x52RGBEEC2EPKhmPhmiRKS6_(ptr noundef nonnull align 8 dereferenceable(56) %0, ptr noundef %1, i64 noundef %2, ptr noundef %3, i64 noundef %4, i32 noundef %5, ptr noundef nonnull align 4 dereferenceable(12) %6) unnamed_addr #2 align 2 {
  %8 = alloca ptr, align 8
  %9 = alloca ptr, align 8
  %10 = alloca i64, align 8
  %11 = alloca ptr, align 8
  %12 = alloca i64, align 8
  %13 = alloca i32, align 4
  %14 = alloca ptr, align 8
  store ptr %0, ptr %8, align 8
  store ptr %1, ptr %9, align 8
  store i64 %2, ptr %10, align 8
  store ptr %3, ptr %11, align 8
  store i64 %4, ptr %12, align 8
  store i32 %5, ptr %13, align 4
  store ptr %6, ptr %14, align 8
  %15 = load ptr, ptr %8, align 8
  %16 = getelementptr inbounds i8, ptr %15, i64 0
  call void @llvm.memset.p0.i64(ptr align 8 %16, i8 0, i64 8, i1 false)
  call void @_ZN2cv16ParallelLoopBodyC2Ev(ptr noundef nonnull align 8 dereferenceable(8) %15) #10
  store ptr getelementptr inbounds inrange(-16, 24) ({ [5 x ptr] }, ptr @_ZTVN2cv4impl12_GLOBAL__N_120CvtColorLoop_InvokerINS_3hal12cpu_baseline12_GLOBAL__N_110RGB5x52RGBEEE, i32 0, i32 0, i32 2), ptr %15, align 8
  %17 = getelementptr inbounds %"class.cv::impl::(anonymous namespace)::CvtColorLoop_Invoker.17", ptr %15, i32 0, i32 1
  %18 = load ptr, ptr %9, align 8
  store ptr %18, ptr %17, align 8
  %19 = getelementptr inbounds %"class.cv::impl::(anonymous namespace)::CvtColorLoop_Invoker.17", ptr %15, i32 0, i32 2
  %20 = load i64, ptr %10, align 8
  store i64 %20, ptr %19, align 8
  %21 = getelementptr inbounds %"class.cv::impl::(anonymous namespace)::CvtColorLoop_Invoker.17", ptr %15, i32 0, i32 3
  %22 = load ptr, ptr %11, align 8
  store ptr %22, ptr %21, align 8
  %23 = getelementptr inbounds %"class.cv::impl::(anonymous namespace)::CvtColorLoop_Invoker.17", ptr %15, i32 0, i32 4
  %24 = load i64, ptr %12, align 8
  store i64 %24, ptr %23, align 8
  %25 = getelementptr inbounds %"class.cv::impl::(anonymous namespace)::CvtColorLoop_Invoker.17", ptr %15, i32 0, i32 5
  %26 = load i32, ptr %13, align 4
  store i32 %26, ptr %25, align 8
  %27 = getelementptr inbounds %"class.cv::impl::(anonymous namespace)::CvtColorLoop_Invoker.17", ptr %15, i32 0, i32 6
  %28 = load ptr, ptr %14, align 8
  store ptr %28, ptr %27, align 8
  ret void
}

; Function Attrs: mustprogress nounwind uwtable
define linkonce_odr hidden void @_ZN2cv5RangeC2Eii(ptr noundef nonnull align 4 dereferenceable(8) %0, i32 noundef %1, i32 noundef %2) unnamed_addr #2 comdat align 2 {
  %4 = alloca ptr, align 8
  %5 = alloca i32, align 4
  %6 = alloca i32, align 4
  store ptr %0, ptr %4, align 8
  store i32 %1, ptr %5, align 4
  store i32 %2, ptr %6, align 4
  %7 = load ptr, ptr %4, align 8
  %8 = getelementptr inbounds %"class.cv::Range", ptr %7, i32 0, i32 0
  %9 = load i32, ptr %5, align 4
  store i32 %9, ptr %8, align 4
  %10 = getelementptr inbounds %"class.cv::Range", ptr %7, i32 0, i32 1
  %11 = load i32, ptr %6, align 4
  store i32 %11, ptr %10, align 4
  ret void
}

; Function Attrs: mustprogress uwtable
define internal void @_ZN2cv4impl12_GLOBAL__N_112CvtColorLoopINS_3hal12cpu_baseline12_GLOBAL__N_110RGB5x52RGBEEEvPKhmPhmiiRKT_(ptr noundef %0, i64 noundef %1, ptr noundef %2, i64 noundef %3, i32 noundef %4, i32 noundef %5, ptr noundef nonnull align 4 dereferenceable(12) %6) #0 personality ptr @__gxx_personality_v0 {
  %8 = alloca ptr, align 8
  %9 = alloca i64, align 8
  %10 = alloca ptr, align 8
  %11 = alloca i64, align 8
  %12 = alloca i32, align 4
  %13 = alloca i32, align 4
  %14 = alloca ptr, align 8
  %15 = alloca %"class.cv::Range", align 4
  %16 = alloca %"class.cv::impl::(anonymous namespace)::CvtColorLoop_Invoker.17", align 8
  %17 = alloca ptr, align 8
  %18 = alloca i32, align 4
  store ptr %0, ptr %8, align 8
  store i64 %1, ptr %9, align 8
  store ptr %2, ptr %10, align 8
  store i64 %3, ptr %11, align 8
  store i32 %4, ptr %12, align 4
  store i32 %5, ptr %13, align 4
  store ptr %6, ptr %14, align 8
  %19 = load i32, ptr %13, align 4
  call void @_ZN2cv5RangeC2Eii(ptr noundef nonnull align 4 dereferenceable(8) %15, i32 noundef 0, i32 noundef %19)
  %20 = load ptr, ptr %8, align 8
  %21 = load i64, ptr %9, align 8
  %22 = load ptr, ptr %10, align 8
  %23 = load i64, ptr %11, align 8
  %24 = load i32, ptr %12, align 4
  %25 = load ptr, ptr %14, align 8
  call void @_ZN2cv4impl12_GLOBAL__N_120CvtColorLoop_InvokerINS_3hal12cpu_baseline12_GLOBAL__N_110RGB5x52RGBEEC2EPKhmPhmiRKS6_(ptr noundef nonnull align 8 dereferenceable(56) %16, ptr noundef %20, i64 noundef %21, ptr noundef %22, i64 noundef %23, i32 noundef %24, ptr noundef nonnull align 4 dereferenceable(12) %25)
  %26 = load i32, ptr %12, align 4
  %27 = load i32, ptr %13, align 4
  %28 = mul nsw i32 %26, %27
  %29 = sitofp i32 %28 to double
  %30 = fdiv double %29, 6.553600e+04
  invoke void @_ZN2cv13parallel_for_ERKNS_5RangeERKNS_16ParallelLoopBodyEd(ptr noundef nonnull align 4 dereferenceable(8) %15, ptr noundef nonnull align 8 dereferenceable(8) %16, double noundef %30)
          to label %31 unwind label %32

31:                                               ; preds = %7
  call void @_ZN2cv4impl12_GLOBAL__N_120CvtColorLoop_InvokerINS_3hal12cpu_baseline12_GLOBAL__N_110RGB5x52RGBEED2Ev(ptr noundef nonnull align 8 dereferenceable(56) %16) #10
  ret void

32:                                               ; preds = %7
  %33 = landingpad { ptr, i32 }
          cleanup
  %34 = extractvalue { ptr, i32 } %33, 0
  store ptr %34, ptr %17, align 8
  %35 = extractvalue { ptr, i32 } %33, 1
  store i32 %35, ptr %18, align 4
  call void @_ZN2cv4impl12_GLOBAL__N_120CvtColorLoop_InvokerINS_3hal12cpu_baseline12_GLOBAL__N_110RGB5x52RGBEED2Ev(ptr noundef nonnull align 8 dereferenceable(56) %16) #10
  br label %36

36:                                               ; preds = %32
  %37 = load ptr, ptr %17, align 8
  %38 = load i32, ptr %18, align 4
  %39 = insertvalue { ptr, i32 } poison, ptr %37, 0
  %40 = insertvalue { ptr, i32 } %39, i32 %38, 1
  resume { ptr, i32 } %40
}

; Function Attrs: mustprogress nounwind uwtable
define internal void @_ZN2cv3hal12cpu_baseline12_GLOBAL__N_110RGB5x52RGBC2Eiii(ptr noundef nonnull align 4 dereferenceable(12) %0, i32 noundef %1, i32 noundef %2, i32 noundef %3) unnamed_addr #2 align 2 {
  %5 = alloca ptr, align 8
  %6 = alloca i32, align 4
  %7 = alloca i32, align 4
  %8 = alloca i32, align 4
  store ptr %0, ptr %5, align 8
  store i32 %1, ptr %6, align 4
  store i32 %2, ptr %7, align 4
  store i32 %3, ptr %8, align 4
  %9 = load ptr, ptr %5, align 8
  %10 = getelementptr inbounds %"struct.cv::hal::cpu_baseline::(anonymous namespace)::RGB5x52RGB", ptr %9, i32 0, i32 0
  %11 = load i32, ptr %6, align 4
  store i32 %11, ptr %10, align 4
  %12 = getelementptr inbounds %"struct.cv::hal::cpu_baseline::(anonymous namespace)::RGB5x52RGB", ptr %9, i32 0, i32 1
  %13 = load i32, ptr %7, align 4
  store i32 %13, ptr %12, align 4
  %14 = getelementptr inbounds %"struct.cv::hal::cpu_baseline::(anonymous namespace)::RGB5x52RGB", ptr %9, i32 0, i32 2
  %15 = load i32, ptr %8, align 4
  store i32 %15, ptr %14, align 4
  ret void
}

; Function Attrs: mustprogress uwtable
define hidden void @_ZN2cv3hal12cpu_baseline14cvtBGR5x5toBGREPKhmPhmiiibi(ptr noundef %0, i64 noundef %1, ptr noundef %2, i64 noundef %3, i32 noundef %4, i32 noundef %5, i32 noundef %6, i1 noundef zeroext %7, i32 noundef %8) #0 personality ptr @__gxx_personality_v0 {
  %10 = alloca ptr, align 8
  %11 = alloca i64, align 8
  %12 = alloca ptr, align 8
  %13 = alloca i64, align 8
  %14 = alloca i32, align 4
  %15 = alloca i32, align 4
  %16 = alloca i32, align 4
  %17 = alloca i8, align 1
  %18 = alloca i32, align 4
  %19 = alloca %"class.cv::utils::trace::details::Region", align 8
  %20 = alloca %"struct.cv::hal::cpu_baseline::(anonymous namespace)::RGB5x52RGB", align 4
  %21 = alloca ptr, align 8
  %22 = alloca i32, align 4
  store ptr %0, ptr %10, align 8
  store i64 %1, ptr %11, align 8
  store ptr %2, ptr %12, align 8
  store i64 %3, ptr %13, align 8
  store i32 %4, ptr %14, align 4
  store i32 %5, ptr %15, align 4
  store i32 %6, ptr %16, align 4
  %23 = zext i1 %7 to i8
  store i8 %23, ptr %17, align 1
  store i32 %8, ptr %18, align 4
  call void @_ZN2cv5utils5trace7details6RegionC1ERKNS3_21LocationStaticStorageE(ptr noundef nonnull align 8 dereferenceable(12) %19, ptr noundef nonnull align 8 dereferenceable(32) @_ZZN2cv3hal12cpu_baseline14cvtBGR5x5toBGREPKhmPhmiiibiE26__cv_trace_location_fn1139)
  %24 = load ptr, ptr %10, align 8
  %25 = load i64, ptr %11, align 8
  %26 = load ptr, ptr %12, align 8
  %27 = load i64, ptr %13, align 8
  %28 = load i32, ptr %14, align 4
  %29 = load i32, ptr %15, align 4
  %30 = load i32, ptr %16, align 4
  %31 = load i8, ptr %17, align 1
  %32 = trunc i8 %31 to i1
  %33 = select i1 %32, i32 2, i32 0
  %34 = load i32, ptr %18, align 4
  invoke void @_ZN2cv3hal12cpu_baseline12_GLOBAL__N_110RGB5x52RGBC2Eiii(ptr noundef nonnull align 4 dereferenceable(12) %20, i32 noundef %30, i32 noundef %33, i32 noundef %34)
          to label %35 unwind label %37

35:                                               ; preds = %9
  invoke void @_ZN2cv4impl12_GLOBAL__N_112CvtColorLoopINS_3hal12cpu_baseline12_GLOBAL__N_110RGB5x52RGBEEEvPKhmPhmiiRKT_(ptr noundef %24, i64 noundef %25, ptr noundef %26, i64 noundef %27, i32 noundef %28, i32 noundef %29, ptr noundef nonnull align 4 dereferenceable(12) %20)
          to label %36 unwind label %37

36:                                               ; preds = %35
  call void @_ZN2cv5utils5trace7details6RegionD2Ev(ptr noundef nonnull align 8 dereferenceable(12) %19) #10
  ret void

37:                                               ; preds = %35, %9
  %38 = landingpad { ptr, i32 }
          cleanup
  %39 = extractvalue { ptr, i32 } %38, 0
  store ptr %39, ptr %21, align 8
  %40 = extractvalue { ptr, i32 } %38, 1
  store i32 %40, ptr %22, align 4
  call void @_ZN2cv5utils5trace7details6RegionD2Ev(ptr noundef nonnull align 8 dereferenceable(12) %19) #10
  br label %41

41:                                               ; preds = %37
  %42 = load ptr, ptr %21, align 8
  %43 = load i32, ptr %22, align 4
  %44 = insertvalue { ptr, i32 } poison, ptr %42, 0
  %45 = insertvalue { ptr, i32 } %44, i32 %43, 1
  resume { ptr, i32 } %45
}