; Function Attrs: mustprogress uwtable
define hidden void @_ZN2cv3hal12cpu_baseline14cvtBGR5x5toBGREPKhmPhmiiibi(ptr noundef %0, i64 noundef %1, ptr noundef %2, i64 noundef %3, i32 noundef %4, i32 noundef %5, i32 noundef %6, i1 noundef zeroext %7, i32 noundef %8) local_unnamed_addr #0 personality ptr @__gxx_personality_v0 {
  %10 = alloca %"class.cv::Range", align 4
  %11 = alloca %"class.cv::impl::(anonymous namespace)::CvtColorLoop_Invoker.17", align 8
  %12 = alloca %"class.cv::utils::trace::details::Region", align 8
  %13 = alloca %"struct.cv::hal::cpu_baseline::(anonymous namespace)::RGB5x52RGB", align 4
  call void @_ZN2cv5utils5trace7details6RegionC1ERKNS3_21LocationStaticStorageE(ptr noundef nonnull align 8 dereferenceable(12) %12, ptr noundef nonnull align 8 dereferenceable(32) @_ZZN2cv3hal12cpu_baseline14cvtBGR5x5toBGREPKhmPhmiiibiE26__cv_trace_location_fn1139)
  %14 = select i1 %7, i32 2, i32 0
  store i32 %6, ptr %13, align 4
  %15 = getelementptr inbounds i8, ptr %13, i64 4
  store i32 %14, ptr %15, align 4
  %16 = getelementptr inbounds i8, ptr %13, i64 8
  store i32 %8, ptr %16, align 4
  call void @llvm.lifetime.start.p0(i64 8, ptr nonnull %10)
  call void @llvm.lifetime.start.p0(i64 56, ptr nonnull %11)
  store i32 0, ptr %10, align 4
  %17 = getelementptr inbounds i8, ptr %10, i64 4
  store i32 %5, ptr %17, align 4
  store ptr getelementptr inbounds inrange(-16, 24) (i8, ptr @_ZTVN2cv4impl12_GLOBAL__N_120CvtColorLoop_InvokerINS_3hal12cpu_baseline12_GLOBAL__N_110RGB5x52RGBEEE, i64 16), ptr %11, align 8
  %18 = getelementptr inbounds i8, ptr %11, i64 8
  store ptr %0, ptr %18, align 8
  %19 = getelementptr inbounds i8, ptr %11, i64 16
  store i64 %1, ptr %19, align 8
  %20 = getelementptr inbounds i8, ptr %11, i64 24
  store ptr %2, ptr %20, align 8
  %21 = getelementptr inbounds i8, ptr %11, i64 32
  store i64 %3, ptr %21, align 8
  %22 = getelementptr inbounds i8, ptr %11, i64 40
  store i32 %4, ptr %22, align 8
  %23 = getelementptr inbounds i8, ptr %11, i64 48
  store ptr %13, ptr %23, align 8
  %24 = mul nsw i32 %5, %4
  %25 = sitofp i32 %24 to double
  %26 = fmul double %25, 0x3EF0000000000000
  invoke void @_ZN2cv13parallel_for_ERKNS_5RangeERKNS_16ParallelLoopBodyEd(ptr noundef nonnull align 4 dereferenceable(8) %10, ptr noundef nonnull align 8 dereferenceable(8) %11, double noundef %26)
          to label %28 unwind label %.body

.body:                                            ; preds = %9
  %27 = landingpad { ptr, i32 }
          cleanup
  call void @_ZN2cv16ParallelLoopBodyD2Ev(ptr noundef nonnull align 8 dereferenceable(8) %11) #11
  call void @_ZN2cv5utils5trace7details6RegionD2Ev(ptr noundef nonnull align 8 dereferenceable(12) %12) #11
  resume { ptr, i32 } %27

28:                                               ; preds = %9
  call void @_ZN2cv16ParallelLoopBodyD2Ev(ptr noundef nonnull align 8 dereferenceable(8) %11) #11
  call void @llvm.lifetime.end.p0(i64 8, ptr nonnull %10)
  call void @llvm.lifetime.end.p0(i64 56, ptr nonnull %11)
  %29 = getelementptr inbounds i8, ptr %12, i64 8
  %30 = load i32, ptr %29, align 8
  %.not.i = icmp eq i32 %30, 0
  br i1 %.not.i, label %_ZN2cv5utils5trace7details6RegionD2Ev.exit, label %31

31:                                               ; preds = %28
  invoke void @_ZN2cv5utils5trace7details6Region7destroyEv(ptr noundef nonnull align 8 dereferenceable(12) %12)
          to label %_ZN2cv5utils5trace7details6RegionD2Ev.exit unwind label %32

32:                                               ; preds = %31
  %33 = landingpad { ptr, i32 }
          catch ptr null
  %34 = extractvalue { ptr, i32 } %33, 0
  call void @__clang_call_terminate(ptr %34) #13
  unreachable

_ZN2cv5utils5trace7details6RegionD2Ev.exit:       ; preds = %28, %31
  ret void
}